; Function Attrs: mustprogress uwtable
define hidden noundef zeroext i1 @_ZN4lean6is_oneERKNS_4exprE(ptr noundef nonnull align 8 dereferenceable(8) %0) local_unnamed_addr #0 {
  %2 = tail call noundef nonnull align 8 dereferenceable(8) ptr @_ZN4lean20get_has_one_one_nameEv()
  %3 = tail call noundef nonnull align 8 dereferenceable(8) ptr @_ZN4lean10get_app_fnERKNS_4exprE(ptr noundef nonnull align 8 dereferenceable(8) %0)
  %4 = load ptr, ptr %3, align 8, !tbaa !3
  %5 = getelementptr i8, ptr %4, i64 4
  %.val.i.i.i.i.i.i = load i32, ptr %5, align 4
  %.mask.i.i.i = and i32 %.val.i.i.i.i.i.i, -16777216
  %6 = icmp eq i32 %.mask.i.i.i, 67108864
  br i1 %6, label %7, label %_ZN4lean12is_const_appERKNS_4exprERKNS_4nameEj.exit.thread

7:                                                ; preds = %1
  %8 = getelementptr inbounds nuw i8, ptr %4, i64 8
  %9 = load ptr, ptr %8, align 8, !tbaa !3
  %10 = load ptr, ptr %2, align 8, !tbaa !3
  %11 = tail call zeroext i8 @lean_name_eq(ptr noundef %9, ptr noundef %10)
  %.not.i = icmp eq i8 %11, 0
  br i1 %.not.i, label %_ZN4lean12is_const_appERKNS_4exprERKNS_4nameEj.exit.thread, label %_ZN4lean12is_const_appERKNS_4exprERKNS_4nameEj.exit

_ZN4lean12is_const_appERKNS_4exprERKNS_4nameEj.exit: ; preds = %7
  %12 = tail call noundef i32 @_ZN4lean16get_app_num_argsERKNS_4exprE(ptr noundef nonnull align 8 dereferenceable(8) %0)
  %13 = icmp eq i32 %12, 2
  br i1 %13, label %_ZN4lean12is_const_appERKNS_4exprERKNS_4nameEj.exit6.thread, label %_ZN4lean12is_const_appERKNS_4exprERKNS_4nameEj.exit.thread

_ZN4lean12is_const_appERKNS_4exprERKNS_4nameEj.exit.thread: ; preds = %1, %7, %_ZN4lean12is_const_appERKNS_4exprERKNS_4nameEj.exit
  %14 = tail call noundef nonnull align 8 dereferenceable(8) ptr @_ZN4lean17get_nat_succ_nameEv()
  %15 = tail call noundef nonnull align 8 dereferenceable(8) ptr @_ZN4lean10get_app_fnERKNS_4exprE(ptr noundef nonnull align 8 dereferenceable(8) %0)
  %16 = load ptr, ptr %15, align 8, !tbaa !3
  %17 = getelementptr i8, ptr %16, i64 4
  %.val.i.i.i.i.i.i3 = load i32, ptr %17, align 4
  %.mask.i.i.i4 = and i32 %.val.i.i.i.i.i.i3, -16777216
  %18 = icmp eq i32 %.mask.i.i.i4, 67108864
  br i1 %18, label %19, label %_ZN4lean12is_const_appERKNS_4exprERKNS_4nameEj.exit6.thread

19:                                               ; preds = %_ZN4lean12is_const_appERKNS_4exprERKNS_4nameEj.exit.thread
  %20 = getelementptr inbounds nuw i8, ptr %16, i64 8
  %21 = load ptr, ptr %20, align 8, !tbaa !3
  %22 = load ptr, ptr %14, align 8, !tbaa !3
  %23 = tail call zeroext i8 @lean_name_eq(ptr noundef %21, ptr noundef %22)
  %.not.i5 = icmp eq i8 %23, 0
  br i1 %.not.i5, label %_ZN4lean12is_const_appERKNS_4exprERKNS_4nameEj.exit6.thread, label %_ZN4lean12is_const_appERKNS_4exprERKNS_4nameEj.exit6

_ZN4lean12is_const_appERKNS_4exprERKNS_4nameEj.exit6: ; preds = %19
  %24 = tail call noundef i32 @_ZN4lean16get_app_num_argsERKNS_4exprE(ptr noundef nonnull align 8 dereferenceable(8) %0)
  %25 = icmp eq i32 %24, 1
  br i1 %25, label %26, label %_ZN4lean12is_const_appERKNS_4exprERKNS_4nameEj.exit6.thread

26:                                               ; preds = %_ZN4lean12is_const_appERKNS_4exprERKNS_4nameEj.exit6
  %27 = load ptr, ptr %0, align 8, !tbaa !3
  %28 = getelementptr inbounds nuw i8, ptr %27, i64 16
  %29 = tail call noundef zeroext i1 @_ZN4lean7is_zeroERKNS_4exprE(ptr noundef nonnull align 8 dereferenceable(8) %28)
  br label %_ZN4lean12is_const_appERKNS_4exprERKNS_4nameEj.exit6.thread

_ZN4lean12is_const_appERKNS_4exprERKNS_4nameEj.exit6.thread: ; preds = %_ZN4lean12is_const_appERKNS_4exprERKNS_4nameEj.exit.thread, %19, %_ZN4lean12is_const_appERKNS_4exprERKNS_4nameEj.exit6, %26, %_ZN4lean12is_const_appERKNS_4exprERKNS_4nameEj.exit
  %30 = phi i1 [ true, %_ZN4lean12is_const_appERKNS_4exprERKNS_4nameEj.exit ], [ false, %_ZN4lean12is_const_appERKNS_4exprERKNS_4nameEj.exit6 ], [ %29, %26 ], [ false, %19 ], [ false, %_ZN4lean12is_const_appERKNS_4exprERKNS_4nameEj.exit.thread ]
  ret i1 %30
}